; Function Attrs: mustprogress nofree norecurse nosync nounwind memory(readwrite, inaccessiblemem: none) uwtable
define dso_local void @_ZN10btSoftBody20resetLinkRestLengthsEv(ptr nocapture noundef nonnull readonly align 8 dereferenceable(2064) %this) local_unnamed_addr #20 align 2 {
entry:
  %m_size.i = getelementptr inbounds i8, ptr %this, i64 996
  %0 = load i32, ptr %m_size.i, align 4
  %cmp8 = icmp sgt i32 %0, 0
  br i1 %cmp8, label %for.body.lr.ph, label %for.end

for.body.lr.ph:                                   ; preds = %entry
  %m_data.i = getelementptr inbounds i8, ptr %this, i64 1008
  %wide.trip.count = zext nneg i32 %0 to i64
  br label %for.body

for.body:                                         ; preds = %for.body.lr.ph, %for.body
  %indvars.iv = phi i64 [ 0, %for.body.lr.ph ], [ %indvars.iv.next, %for.body ]
  %1 = load ptr, ptr %m_data.i, align 8
  %arrayidx.i = getelementptr inbounds %"struct.btSoftBody::Link", ptr %1, i64 %indvars.iv
  %m_n = getelementptr inbounds i8, ptr %arrayidx.i, i64 32
  %2 = load ptr, ptr %m_n, align 8
  %m_x = getelementptr inbounds i8, ptr %2, i64 16
  %arrayidx5 = getelementptr inbounds i8, ptr %arrayidx.i, i64 40
  %3 = load ptr, ptr %arrayidx5, align 8
  %m_x6 = getelementptr inbounds i8, ptr %3, i64 16
  %4 = load float, ptr %m_x, align 4
  %5 = load float, ptr %m_x6, align 4
  %sub.i = fsub float %4, %5
  %arrayidx5.i = getelementptr inbounds i8, ptr %2, i64 20
  %6 = load float, ptr %arrayidx5.i, align 4
  %arrayidx7.i = getelementptr inbounds i8, ptr %3, i64 20
  %7 = load float, ptr %arrayidx7.i, align 4
  %sub8.i = fsub float %6, %7
  %arrayidx11.i = getelementptr inbounds i8, ptr %2, i64 24
  %8 = load float, ptr %arrayidx11.i, align 4
  %arrayidx13.i = getelementptr inbounds i8, ptr %3, i64 24
  %9 = load float, ptr %arrayidx13.i, align 4
  %sub14.i = fsub float %8, %9
  %mul8.i.i.i = fmul float %sub8.i, %sub8.i
  %10 = tail call float @llvm.fmuladd.f32(float %sub.i, float %sub.i, float %mul8.i.i.i)
  %11 = tail call noundef float @llvm.fmuladd.f32(float %sub14.i, float %sub14.i, float %10)
  %sqrt.i = tail call noundef float @llvm.sqrt.f32(float %11)
  %m_rl = getelementptr inbounds i8, ptr %arrayidx.i, i64 48
  store float %sqrt.i, ptr %m_rl, align 8
  %mul = fmul float %sqrt.i, %sqrt.i
  %m_c1 = getelementptr inbounds i8, ptr %arrayidx.i, i64 60
  store float %mul, ptr %m_c1, align 4
  %indvars.iv.next = add nuw nsw i64 %indvars.iv, 1
  %exitcond.not = icmp eq i64 %indvars.iv.next, %wide.trip.count
  br i1 %exitcond.not, label %for.end, label %for.body, !llvm.loop !176

for.end:                                          ; preds = %for.body, %entry
  ret void
}